EXPORTS
    _ZN13bangalore_v2v14MyBangaloreApp10initializeEi @1
    _ZN13bangalore_v2v14MyBangaloreApp13handleMessageEPN7omnetpp8cMessageE @2
    _ZN13bangalore_v2v14MyBangaloreApp13handleSelfMsgEPN7omnetpp8cMessageE @3
    _ZN13bangalore_v2v14MyBangaloreApp13sendBroadcastEv @4
    _ZN13bangalore_v2v14MyBangaloreApp20handlePositionUpdateEPN7omnetpp7cObjectE @5
    _ZN13bangalore_v2v14MyBangaloreApp24handleGradientFromServerEPN5veins15BaseFrame1609_4E @6
    _ZN13bangalore_v2v14MyBangaloreApp5onWSMEPN5veins15BaseFrame1609_4E @7
    _ZN13bangalore_v2v14MyBangaloreApp6finishEv @8
    _ZN13bangalore_v2v14MyBangaloreAppC1Ev @9
    _ZN13bangalore_v2v14MyBangaloreAppC2Ev @10
    _ZN13bangalore_v2v14MyBangaloreAppD0Ev @11
    _ZN13bangalore_v2v14MyBangaloreAppD1Ev @12
    _ZN13bangalore_v2v14MyBangaloreAppD2Ev @13
    _ZN5veins10BaseModule13receiveSignalEPN7omnetpp10cComponentEiPNS1_7cObjectE @14
    _ZN5veins10BaseModule6finishEPN7omnetpp10cComponentEi @15
    _ZN5veins13BaseApplLayer14handleUpperMsgEPN7omnetpp8cMessageE @16
    _ZN5veins13BaseApplLayer18handleLowerControlEPN7omnetpp8cMessageE @17
    _ZN5veins13BaseApplLayer18handleUpperControlEPN7omnetpp8cMessageE @18
    _ZN5veins17DemoBaseApplLayer5onBSMEPNS_17DemoSafetyMessageE @19
    _ZN5veins17DemoBaseApplLayer5onWSAEPNS_23DemoServiceAdvertismentE @20
    _ZN7omnetpp10cComponent12recordScalarEPKcNS_7SimTimeES2_ @21
    _ZN7omnetpp10cComponent4emitEiPKNS_7cObjectEPS1_ @22
    _ZN7omnetpp10cComponent4emitEicPNS_7cObjectE @23
    _ZN7omnetpp10cComponent4emitEiePNS_7cObjectE @24
    _ZN7omnetpp10cComponent4emitEifPNS_7cObjectE @25
    _ZN7omnetpp10cComponent4emitEihPNS_7cObjectE @26
    _ZN7omnetpp10cComponent4emitEiiPNS_7cObjectE @27
    _ZN7omnetpp10cComponent4emitEijPNS_7cObjectE @28
    _ZN7omnetpp10cComponent4emitEilPNS_7cObjectE @29
    _ZN7omnetpp10cComponent4emitEimPNS_7cObjectE @30
    _ZN7omnetpp10cComponent4emitEisPNS_7cObjectE @31
    _ZN7omnetpp10cComponent4emitEitPNS_7cObjectE @32
    _ZN7omnetpp10cComponent4emitEixPNS_7cObjectE @33
    _ZN7omnetpp10cComponent4emitEiyPNS_7cObjectE @34
    _ZN7omnetpp10cComponent9setRNGMapEsPi @35
    _ZN7omnetpp10cExceptionD2Ev @36
    _ZN7omnetpp10cIListener12subscribedToEPNS_10cComponentEi @37
    _ZN7omnetpp10cIListener16unsubscribedFromEPNS_10cComponentEi @38
    _ZN7omnetpp12cNamedObject14getNamePoolingEv @39
    _ZN7omnetpp13cSimpleModule10sendDirectEPNS_8cMessageENS_7SimTimeES3_PNS_5cGateE @40
    _ZN7omnetpp13cSimpleModule10sendDirectEPNS_8cMessageENS_7SimTimeES3_PNS_7cModuleEPKci @41
    _ZN7omnetpp13cSimpleModule10sendDirectEPNS_8cMessageENS_7SimTimeES3_PNS_7cModuleEi @42
    _ZN7omnetpp13cSimpleModule10sendDirectEPNS_8cMessageEPNS_5cGateE @43
    _ZN7omnetpp13cSimpleModule10sendDirectEPNS_8cMessageEPNS_7cModuleEPKci @44
    _ZN7omnetpp13cSimpleModule10sendDirectEPNS_8cMessageEPNS_7cModuleEi @45
    _ZN7omnetpp13cSimpleModule10sendDirectEPNS_8cMessageERKNS_11SendOptionsEPNS_7cModuleEPKci @46
    _ZN7omnetpp13cSimpleModule10sendDirectEPNS_8cMessageERKNS_11SendOptionsEPNS_7cModuleEi @47
    _ZN7omnetpp13cSimpleModule11sendDelayedEPNS_8cMessageENS_7SimTimeEPKci @48
    _ZN7omnetpp13cSimpleModule11sendDelayedEPNS_8cMessageENS_7SimTimeEPNS_5cGateE @49
    _ZN7omnetpp13cSimpleModule11sendDelayedEPNS_8cMessageENS_7SimTimeEi @50
    _ZN7omnetpp13cSimpleModule4sendEPNS_8cMessageEPKci @51
    _ZN7omnetpp13cSimpleModule4sendEPNS_8cMessageEPNS_5cGateE @52
    _ZN7omnetpp13cSimpleModule4sendEPNS_8cMessageERKNS_11SendOptionsEPKci @53
    _ZN7omnetpp13cSimpleModule4sendEPNS_8cMessageERKNS_11SendOptionsEi @54
    _ZN7omnetpp13cSimpleModule4sendEPNS_8cMessageEi @55
    _ZN7omnetpp23cNoncopyableOwnedObject12parsimUnpackEPNS_11cCommBufferE @56
    _ZN7omnetpp7cModule27setBuiltinAnimationsAllowedEb @57
    _ZNK5veins10BaseModule13numInitStagesEv @58
    _ZNK5veins13BaseApplLayer10myApplAddrEv @59
    _ZNK7omnetpp10cComponent10chi_squareEji @60
    _ZNK7omnetpp10cComponent10intuniformEiii @61
    _ZNK7omnetpp10cComponent11exponentialENS_7SimTimeEi @62
    _ZNK7omnetpp10cComponent11exponentialEdi @63
    _ZNK7omnetpp10cComponent11negbinomialEidi @64
    _ZNK7omnetpp10cComponent11truncnormalENS_7SimTimeES1_i @65
    _ZNK7omnetpp10cComponent11truncnormalEddi @66
    _ZNK7omnetpp10cComponent12getNumParamsEv @67
    _ZNK7omnetpp10cComponent14getDisplayNameEv @68
    _ZNK7omnetpp10cComponent14intuniformexclEiii @69
    _ZNK7omnetpp10cComponent14pareto_shiftedEdddi @70
    _ZNK7omnetpp10cComponent4betaEddi @71
    _ZNK7omnetpp10cComponent6cauchyEddi @72
    _ZNK7omnetpp10cComponent6normalENS_7SimTimeES1_i @73
    _ZNK7omnetpp10cComponent6normalEddi @74
    _ZNK7omnetpp10cComponent6triangEdddi @75
    _ZNK7omnetpp10cComponent7dblrandEi @76
    _ZNK7omnetpp10cComponent7gamma_dEddi @77
    _ZNK7omnetpp10cComponent7intrandEji @78
    _ZNK7omnetpp10cComponent7poissonEdi @79
    _ZNK7omnetpp10cComponent7uniformENS_7SimTimeES1_i @80
    _ZNK7omnetpp10cComponent7uniformEddi @81
    _ZNK7omnetpp10cComponent7weibullEddi @82
    _ZNK7omnetpp10cComponent8binomialEidi @83
    _ZNK7omnetpp10cComponent8erlang_kEjdi @84
    _ZNK7omnetpp10cComponent9bernoulliEdi @85
    _ZNK7omnetpp10cComponent9geometricEdi @86
    _ZNK7omnetpp10cComponent9lognormalEddi @87
    _ZNK7omnetpp10cComponent9student_tEji @88
    _ZNK7omnetpp10cIListener17getSubscribeCountEv @89
    _ZNK7omnetpp10cSoftOwner11isSoftOwnerEv @90
    _ZNK7omnetpp12cNamedObject7getNameEv @91
    _ZNK7omnetpp12cOwnedObject13isOwnedObjectEv @92
    _ZNK7omnetpp12cOwnedObject8getOwnerEv @93
    _ZNK7omnetpp23cNoncopyableOwnedObject10parsimPackEPNS_11cCommBufferE @94
    _ZNK7omnetpp7cModule13isPlaceholderEv @95
    _ZNK7omnetpp7cModule15getParentModuleEv @96
    _ZNK7omnetpp7cModule16getComponentKindEv @97
    _ZNK7omnetpp7cModule27getBuiltinAnimationsAllowedEv @98
    _ZNSt3mapIN5veins7ChannelEdSt4lessIS1_ESaISt4pairIKS1_dEEEC2ESt16initializer_listIS6_ERKS3_RKS7_ @99
    _ZNSt3mapIiN5veins5CoordESt4lessIiESaISt4pairIKiS1_EEED2Ev @100
    _ZNSt7__cxx114stodERKNS_12basic_stringIcSt11char_traitsIcESaIcEEEPy @101
    _ZNSt8_Rb_treeIN5veins7ChannelESt4pairIKS1_dESt10_Select1stIS4_ESt4lessIS1_ESaIS4_EE29_M_get_insert_hint_unique_posESt23_Rb_tree_const_iteratorIS4_ERS3_ @102
    _ZNSt8_Rb_treeIN5veins7ChannelESt4pairIKS1_dESt10_Select1stIS4_ESt4lessIS1_ESaIS4_EE8_M_eraseEPSt13_Rb_tree_nodeIS4_E @103
    _ZNSt8_Rb_treeIN5veins7ChannelESt4pairIKS1_dESt10_Select1stIS4_ESt4lessIS1_ESaIS4_EED2Ev @104
    _ZNSt8_Rb_treeIiSt4pairIKiN5veins5CoordEESt10_Select1stIS4_ESt4lessIiESaIS4_EE10_Auto_nodeD2Ev @105
    _ZNSt8_Rb_treeIiSt4pairIKiN5veins5CoordEESt10_Select1stIS4_ESt4lessIiESaIS4_EE22_M_emplace_hint_uniqueIJRKSt21piecewise_construct_tSt5tupleIJRS1_EESF_IJEEEEESt17_Rb_tree_iteratorIS4_ESt23_Rb_tree_const_iteratorIS4_EDpOT_ @106
    _ZNSt8_Rb_treeIiSt4pairIKiN5veins5CoordEESt10_Select1stIS4_ESt4lessIiESaIS4_EE29_M_get_insert_hint_unique_posESt23_Rb_tree_const_iteratorIS4_ERS1_ @107
    _ZNSt8_Rb_treeIiSt4pairIKiN5veins5CoordEESt10_Select1stIS4_ESt4lessIiESaIS4_EE8_M_eraseEPSt13_Rb_tree_nodeIS4_E @108
    _ZSt19piecewise_construct @109 DATA
    _ZTIN13bangalore_v2v14MyBangaloreAppE @110 DATA
    _ZTSN13bangalore_v2v14MyBangaloreAppE @111 DATA
    _ZTSN5veins10BaseModuleE @112 DATA
    _ZTSN5veins12BaseMobilityE @113 DATA
    _ZTSN5veins13BaseApplLayerE @114 DATA
    _ZTSN5veins13BatteryAccessE @115 DATA
    _ZTSN5veins13TraCIMobilityE @116 DATA
    _ZTSN5veins15BaseFrame1609_4E @117 DATA
    _ZTSN5veins17DemoBaseApplLayerE @118 DATA
    _ZTSN5veins9BaseLayerE @119 DATA
    _ZTSN7omnetpp10cComponentE @120 DATA
    _ZTSN7omnetpp10cExceptionE @121 DATA
    _ZTSN7omnetpp10cIListenerE @122 DATA
    _ZTSN7omnetpp10cSoftOwnerE @123 DATA
    _ZTSN7omnetpp11noncopyableE @124 DATA
    _ZTSN7omnetpp12cNamedObjectE @125 DATA
    _ZTSN7omnetpp12cOwnedObjectE @126 DATA
    _ZTSN7omnetpp13cRuntimeErrorE @127 DATA
    _ZTSN7omnetpp13cSimpleModuleE @128 DATA
    _ZTSN7omnetpp23cNoncopyableOwnedObjectE @129 DATA
    _ZTSN7omnetpp6cEventE @130 DATA
    _ZTSN7omnetpp7cModuleE @131 DATA
    _ZTSN7omnetpp7cObjectE @132 DATA
    _ZTSN7omnetpp7cPacketE @133 DATA
    _ZTSN7omnetpp8cMessageE @134 DATA
    _ZTSN7omnetpp9cListenerE @135 DATA
    _ZTVN13bangalore_v2v14MyBangaloreAppE @136 DATA
    _ZThn216_N13bangalore_v2v14MyBangaloreAppD0Ev @137
    _ZThn216_N13bangalore_v2v14MyBangaloreAppD1Ev @138
    __clang_call_terminate @139
