EXPORTS
    _ZN13bangalore_v2v14MyBangaloreApp10initializeEi @1
    _ZN13bangalore_v2v14MyBangaloreApp13handleMessageEPN7omnetpp8cMessageE @2
    _ZN13bangalore_v2v14MyBangaloreApp13handleSelfMsgEPN7omnetpp8cMessageE @3
    _ZN13bangalore_v2v14MyBangaloreApp13sendBroadcastEv @4
    _ZN13bangalore_v2v14MyBangaloreApp20handlePositionUpdateEPN7omnetpp7cObjectE @5
    _ZN13bangalore_v2v14MyBangaloreApp5onWSMEPN5veins15BaseFrame1609_4E @6
    _ZN13bangalore_v2v14MyBangaloreApp6finishEv @7
    _ZN13bangalore_v2v14MyBangaloreAppC1Ev @8
    _ZN13bangalore_v2v14MyBangaloreAppC2Ev @9
    _ZN13bangalore_v2v14MyBangaloreAppD0Ev @10
    _ZN13bangalore_v2v14MyBangaloreAppD1Ev @11
    _ZN13bangalore_v2v14MyBangaloreAppD2Ev @12
    _ZN5veins10BaseModule13receiveSignalEPN7omnetpp10cComponentEiPNS1_7cObjectE @13
    _ZN5veins10BaseModule6finishEPN7omnetpp10cComponentEi @14
    _ZN5veins13BaseApplLayer14handleUpperMsgEPN7omnetpp8cMessageE @15
    _ZN5veins13BaseApplLayer18handleLowerControlEPN7omnetpp8cMessageE @16
    _ZN5veins13BaseApplLayer18handleUpperControlEPN7omnetpp8cMessageE @17
    _ZN5veins13BaseApplLayerC2Ev @18
    _ZN5veins13BaseApplLayerD2Ev @19
    _ZN5veins17DemoBaseApplLayer5onBSMEPNS_17DemoSafetyMessageE @20
    _ZN5veins17DemoBaseApplLayer5onWSAEPNS_23DemoServiceAdvertismentE @21
    _ZN5veins17DemoBaseApplLayerC2Ev @22
    _ZN5veins5Coord4copyERKS0_ @23
    _ZN5veins5CoordC2Eddd @24
    _ZN5veins5CoordC2Ev @25
    _ZN5veins5CoordD0Ev @26
    _ZN5veins5CoordD2Ev @27
    _ZN5veins5CoordaSERKS0_ @28
    _ZN5veins9BaseLayerC2Ev @29
    _ZN5veinslsERSoRKNS_5CoordE @30
    _ZN7omnetpp10cComponent12recordScalarEPKcNS_7SimTimeES2_ @31
    _ZN7omnetpp10cComponent4emitEiPKNS_7cObjectEPS1_ @32
    _ZN7omnetpp10cComponent4emitEicPNS_7cObjectE @33
    _ZN7omnetpp10cComponent4emitEiePNS_7cObjectE @34
    _ZN7omnetpp10cComponent4emitEifPNS_7cObjectE @35
    _ZN7omnetpp10cComponent4emitEihPNS_7cObjectE @36
    _ZN7omnetpp10cComponent4emitEiiPNS_7cObjectE @37
    _ZN7omnetpp10cComponent4emitEijPNS_7cObjectE @38
    _ZN7omnetpp10cComponent4emitEilPNS_7cObjectE @39
    _ZN7omnetpp10cComponent4emitEimPNS_7cObjectE @40
    _ZN7omnetpp10cComponent4emitEisPNS_7cObjectE @41
    _ZN7omnetpp10cComponent4emitEitPNS_7cObjectE @42
    _ZN7omnetpp10cComponent4emitEixPNS_7cObjectE @43
    _ZN7omnetpp10cComponent4emitEiyPNS_7cObjectE @44
    _ZN7omnetpp10cComponent9setRNGMapEsPi @45
    _ZN7omnetpp10cExceptionD2Ev @46
    _ZN7omnetpp10cIListener12subscribedToEPNS_10cComponentEi @47
    _ZN7omnetpp10cIListener16unsubscribedFromEPNS_10cComponentEi @48
    _ZN7omnetpp10cIListener6finishEPNS_10cComponentEi @49
    _ZN7omnetpp11SendOptions5afterENS_7SimTimeE @50
    _ZN7omnetpp11SendOptionsC2Ev @51
    _ZN7omnetpp11cSimulation19getActiveSimulationEv @52
    _ZN7omnetpp12cNamedObject14getNamePoolingEv @53
    _ZN7omnetpp12cNamedObject7setFlagEib @54
    _ZN7omnetpp13CodeFragmentsD2Ev @55
    _ZN7omnetpp13cRuntimeErrorD2Ev @56
    _ZN7omnetpp13cSimpleModule10sendDirectEPNS_8cMessageENS_7SimTimeES3_PNS_5cGateE @57
    _ZN7omnetpp13cSimpleModule10sendDirectEPNS_8cMessageENS_7SimTimeES3_PNS_7cModuleEPKci @58
    _ZN7omnetpp13cSimpleModule10sendDirectEPNS_8cMessageENS_7SimTimeES3_PNS_7cModuleEi @59
    _ZN7omnetpp13cSimpleModule10sendDirectEPNS_8cMessageEPNS_5cGateE @60
    _ZN7omnetpp13cSimpleModule10sendDirectEPNS_8cMessageEPNS_7cModuleEPKci @61
    _ZN7omnetpp13cSimpleModule10sendDirectEPNS_8cMessageEPNS_7cModuleEi @62
    _ZN7omnetpp13cSimpleModule10sendDirectEPNS_8cMessageERKNS_11SendOptionsEPNS_7cModuleEPKci @63
    _ZN7omnetpp13cSimpleModule10sendDirectEPNS_8cMessageERKNS_11SendOptionsEPNS_7cModuleEi @64
    _ZN7omnetpp13cSimpleModule11sendDelayedEPNS_8cMessageENS_7SimTimeEPKci @65
    _ZN7omnetpp13cSimpleModule11sendDelayedEPNS_8cMessageENS_7SimTimeEPNS_5cGateE @66
    _ZN7omnetpp13cSimpleModule11sendDelayedEPNS_8cMessageENS_7SimTimeEi @67
    _ZN7omnetpp13cSimpleModule4sendEPNS_8cMessageEPKci @68
    _ZN7omnetpp13cSimpleModule4sendEPNS_8cMessageEPNS_5cGateE @69
    _ZN7omnetpp13cSimpleModule4sendEPNS_8cMessageERKNS_11SendOptionsEPKci @70
    _ZN7omnetpp13cSimpleModule4sendEPNS_8cMessageERKNS_11SendOptionsEi @71
    _ZN7omnetpp13cSimpleModule4sendEPNS_8cMessageEi @72
    _ZN7omnetpp23cNoncopyableOwnedObject12parsimUnpackEPNS_11cCommBufferE @73
    _ZN7omnetpp4cLog19runtimeLogPredicateEPKNS_10cComponentENS_8LogLevelEPKc @74
    _ZN7omnetpp7SimTime10checkedAddERKS0_ @75
    _ZN7omnetpp7SimTime10checkedSubERKS0_ @76
    _ZN7omnetpp7SimTime10setSecondsEx @77
    _ZN7omnetpp7SimTime12assertInitedIdEEvT_ @78
    _ZN7omnetpp7SimTime12assertInitedIiEEvT_ @79
    _ZN7omnetpp7SimTime12haveSameSignExx @80
    _ZN7omnetpp7SimTime6setRawEx @81
    _ZN7omnetpp7SimTime7toInt64Ed @82
    _ZN7omnetpp7SimTimeC2ERKS0_ @83
    _ZN7omnetpp7SimTimeC2Ed @84
    _ZN7omnetpp7SimTimeC2Ei @85
    _ZN7omnetpp7SimTimeC2Ev @86
    _ZN7omnetpp7SimTimeaSEd @87
    _ZN7omnetpp7SimTimeaSEi @88
    _ZN7omnetpp7SimTimemIERKS0_ @89
    _ZN7omnetpp7SimTimepLERKS0_ @90
    _ZN7omnetpp7cModule27setBuiltinAnimationsAllowedEb @91
    _ZN7omnetpp7cObjectC2Ev @92
    _ZN7omnetpp7cObjectaSERKS0_ @93
    _ZN7omnetpp7simTimeEv @94
    _ZN7omnetpp8internal9cLogProxy9getStreamEv @95
    _ZN7omnetpp9bernoulliEPNS_4cRNGEd @96
    _ZN7omnetpp9lognormalEPNS_4cRNGEdd @97
    _ZN7omnetppmiERKNS_7SimTimeES2_ @98
    _ZN7omnetppplERKNS_7SimTimeES2_ @99
    _ZN9__gnu_cxx16__aligned_membufISt4pairIKN5veins7ChannelEdEE6_M_ptrEv @100
    _ZN9__gnu_cxx16__aligned_membufISt4pairIKN5veins7ChannelEdEE7_M_addrEv @101
    _ZN9__gnu_cxx16__aligned_membufISt4pairIKiN5veins5CoordEEE6_M_ptrEv @102
    _ZN9__gnu_cxx16__aligned_membufISt4pairIKiN5veins5CoordEEE7_M_addrEv @103
    _ZN9__gnu_cxx17__normal_iteratorIPdSt6vectorIdSaIdEEEC2ERKS1_ @104
    _ZN9__gnu_cxx6__stoaIddcJEEET0_PFT_PKT1_PPS3_DpT2_EPKcS5_PyS9_ @105
    _ZN9__gnu_cxxmiIPdSt6vectorIdSaIdEEEENS_17__normal_iteratorIT_T0_E15difference_typeERKS8_SB_ @106
    _ZNK5veins10BaseModule13numInitStagesEv @107
    _ZNK5veins13BaseApplLayer10myApplAddrEv @108
    _ZNK5veins5Coord3strB5cxx11Ev @109
    _ZNK7omnetpp10cComponent10chi_squareEji @110
    _ZNK7omnetpp10cComponent10getThisPtrEv @111
    _ZNK7omnetpp10cComponent10intuniformEiii @112
    _ZNK7omnetpp10cComponent11exponentialENS_7SimTimeEi @113
    _ZNK7omnetpp10cComponent11exponentialEdi @114
    _ZNK7omnetpp10cComponent11negbinomialEidi @115
    _ZNK7omnetpp10cComponent11truncnormalENS_7SimTimeES1_i @116
    _ZNK7omnetpp10cComponent11truncnormalEddi @117
    _ZNK7omnetpp10cComponent12getNumParamsEv @118
    _ZNK7omnetpp10cComponent14getDisplayNameEv @119
    _ZNK7omnetpp10cComponent14intuniformexclEiii @120
    _ZNK7omnetpp10cComponent14pareto_shiftedEdddi @121
    _ZNK7omnetpp10cComponent4betaEddi @122
    _ZNK7omnetpp10cComponent5getIdEv @123
    _ZNK7omnetpp10cComponent6cauchyEddi @124
    _ZNK7omnetpp10cComponent6normalENS_7SimTimeES1_i @125
    _ZNK7omnetpp10cComponent6normalEddi @126
    _ZNK7omnetpp10cComponent6triangEdddi @127
    _ZNK7omnetpp10cComponent7dblrandEi @128
    _ZNK7omnetpp10cComponent7gamma_dEddi @129
    _ZNK7omnetpp10cComponent7intrandEji @130
    _ZNK7omnetpp10cComponent7poissonEdi @131
    _ZNK7omnetpp10cComponent7uniformENS_7SimTimeES1_i @132
    _ZNK7omnetpp10cComponent7uniformEddi @133
    _ZNK7omnetpp10cComponent7weibullEddi @134
    _ZNK7omnetpp10cComponent8binomialEidi @135
    _ZNK7omnetpp10cComponent8erlang_kEjdi @136
    _ZNK7omnetpp10cComponent9bernoulliEdi @137
    _ZNK7omnetpp10cComponent9geometricEdi @138
    _ZNK7omnetpp10cComponent9lognormalEddi @139
    _ZNK7omnetpp10cComponent9student_tEji @140
    _ZNK7omnetpp10cIListener17getSubscribeCountEv @141
    _ZNK7omnetpp10cSoftOwner11isSoftOwnerEv @142
    _ZNK7omnetpp11cSimulation10getSimTimeEv @143
    _ZNK7omnetpp12cNamedObject7getNameEv @144
    _ZNK7omnetpp12cOwnedObject13isOwnedObjectEv @145
    _ZNK7omnetpp12cOwnedObject8getOwnerEv @146
    _ZNK7omnetpp16opp_pooledstring5c_strEv @147
    _ZNK7omnetpp23cNoncopyableOwnedObject10parsimPackEPNS_11cCommBufferE @148
    _ZNK7omnetpp5cGate15getPreviousGateEv @149
    _ZNK7omnetpp7SimTime3dblEv @150
    _ZNK7omnetpp7SimTimegeERKS0_ @151
    _ZNK7omnetpp7cModule13isPlaceholderEv @152
    _ZNK7omnetpp7cModule15getParentModuleEv @153
    _ZNK7omnetpp7cModule16getComponentKindEv @154
    _ZNK7omnetpp7cModule27getBuiltinAnimationsAllowedEv @155
    _ZNK7omnetpp7cObject11getFullNameEv @156
    _ZNK7omnetpp7cObject11isSoftOwnerEv @157
    _ZNK7omnetpp7cObject13isOwnedObjectEv @158
    _ZNK7omnetpp7cObject7getNameEv @159
    _ZNK7omnetpp7cObject8getOwnerEv @160
    _ZNK7omnetpp7cPacket13getByteLengthEv @161
    _ZNK9__gnu_cxx16__aligned_membufISt4pairIKN5veins7ChannelEdEE6_M_ptrEv @162
    _ZNK9__gnu_cxx16__aligned_membufISt4pairIKN5veins7ChannelEdEE7_M_addrEv @163
    _ZNK9__gnu_cxx16__aligned_membufISt4pairIKiN5veins5CoordEEE6_M_ptrEv @164
    _ZNK9__gnu_cxx16__aligned_membufISt4pairIKiN5veins5CoordEEE7_M_addrEv @165
    _ZNK9__gnu_cxx17__normal_iteratorIPdSt6vectorIdSaIdEEE4baseEv @166
    _ZNK9__gnu_cxx17__normal_iteratorIPdSt6vectorIdSaIdEEEdeEv @167
    _ZNK9__gnu_cxx17__normal_iteratorIPdSt6vectorIdSaIdEEEmiEx @168
    _ZNKSt10_Select1stISt4pairIKN5veins7ChannelEdEEclERKS4_ @169
    _ZNKSt10_Select1stISt4pairIKiN5veins5CoordEEEclERKS4_ @170
    _ZNKSt12_Vector_baseIdSaIdEE19_M_get_Tp_allocatorEv @171
    _ZNKSt13_Rb_tree_nodeISt4pairIKN5veins7ChannelEdEE9_M_valptrEv @172
    _ZNKSt13_Rb_tree_nodeISt4pairIKiN5veins5CoordEEE9_M_valptrEv @173
    _ZNKSt15__new_allocatorISt13_Rb_tree_nodeISt4pairIKN5veins7ChannelEdEEE11_M_max_sizeEv @174
    _ZNKSt15__new_allocatorISt13_Rb_tree_nodeISt4pairIKiN5veins5CoordEEEE11_M_max_sizeEv @175
    _ZNKSt15__new_allocatorIdE11_M_max_sizeEv @176
    _ZNKSt15__new_allocatorIdE8max_sizeEv @177
    _ZNKSt16initializer_listISt4pairIKN5veins7ChannelEdEE3endEv @178
    _ZNKSt16initializer_listISt4pairIKN5veins7ChannelEdEE4sizeEv @179
    _ZNKSt16initializer_listISt4pairIKN5veins7ChannelEdEE5beginEv @180
    _ZNKSt17_Rb_tree_iteratorISt4pairIKiN5veins5CoordEEEdeEv @181
    _ZNKSt23_Rb_tree_const_iteratorISt4pairIKN5veins7ChannelEdEE13_M_const_castEv @182
    _ZNKSt23_Rb_tree_const_iteratorISt4pairIKiN5veins5CoordEEE13_M_const_castEv @183
    _ZNKSt3mapIiN5veins5CoordESt4lessIiESaISt4pairIKiS1_EEE8key_compEv @184
    _ZNKSt4lessIN5veins7ChannelEEclERKS1_S4_ @185
    _ZNKSt4lessIiEclERKiS2_ @186
    _ZNKSt6vectorISt4pairIPN7omnetpp10cComponentEiESaIS4_EE4sizeEv @187
    _ZNKSt6vectorIdSaIdEE12_M_check_lenEyPKc @188
    _ZNKSt6vectorIdSaIdEE4sizeEv @189
    _ZNKSt6vectorIdSaIdEE8max_sizeEv @190
    _ZNKSt8_Rb_treeIN5veins7ChannelESt4pairIKS1_dESt10_Select1stIS4_ESt4lessIS1_ESaIS4_EE11_Alloc_nodeclIRKS4_EEPSt13_Rb_tree_nodeIS4_EOT_ @191
    _ZNKSt8_Rb_treeIN5veins7ChannelESt4pairIKS1_dESt10_Select1stIS4_ESt4lessIS1_ESaIS4_EE4sizeEv @192
    _ZNKSt8_Rb_treeIN5veins7ChannelESt4pairIKS1_dESt10_Select1stIS4_ESt4lessIS1_ESaIS4_EE9_M_mbeginEv @193
    _ZNKSt8_Rb_treeIiSt4pairIKiN5veins5CoordEESt10_Select1stIS4_ESt4lessIiESaIS4_EE10_Auto_node6_M_keyEv @194
    _ZNKSt8_Rb_treeIiSt4pairIKiN5veins5CoordEESt10_Select1stIS4_ESt4lessIiESaIS4_EE4sizeEv @195
    _ZNKSt8_Rb_treeIiSt4pairIKiN5veins5CoordEESt10_Select1stIS4_ESt4lessIiESaIS4_EE8key_compEv @196
    _ZNKSt8_Rb_treeIiSt4pairIKiN5veins5CoordEESt10_Select1stIS4_ESt4lessIiESaIS4_EE9_M_mbeginEv @197
    _ZNSaISt13_Rb_tree_nodeISt4pairIKN5veins7ChannelEdEEEC2ERKS6_ @198
    _ZNSaISt13_Rb_tree_nodeISt4pairIKN5veins7ChannelEdEEEC2IS4_EERKSaIT_E @199
    _ZNSaISt13_Rb_tree_nodeISt4pairIKN5veins7ChannelEdEEED2Ev @200
    _ZNSaISt13_Rb_tree_nodeISt4pairIKiN5veins5CoordEEEEC2Ev @201
    _ZNSaISt13_Rb_tree_nodeISt4pairIKiN5veins5CoordEEEED2Ev @202
    _ZNSaISt4pairIKN5veins7ChannelEdEEC2ERKS4_ @203
    _ZNSaISt4pairIKN5veins7ChannelEdEEC2Ev @204
    _ZNSaISt4pairIKN5veins7ChannelEdEED2Ev @205
    _ZNSaIdEC2Ev @206
    _ZNSaIdED2Ev @207
    _ZNSt10_Head_baseILy0ERKiLb0EE7_M_headERS2_ @208
    _ZNSt10_Head_baseILy0ERKiLb0EEC2ES1_ @209
    _ZNSt10__pair_getILy0EE11__const_getIKiN5veins5CoordEEERKT_RKSt4pairIS5_T0_E @210
    _ZNSt10__pair_getILy1EE11__const_getIKiN5veins5CoordEEERKT0_RKSt4pairIT_S5_E @211
    _ZNSt11_Tuple_implILy0EJRKiEE7_M_headERS2_ @212
    _ZNSt11_Tuple_implILy0EJRKiEEC2EOS2_ @213
    _ZNSt11_Tuple_implILy0EJRKiEEC2ES1_ @214
    _ZNSt11char_traitsIcE6lengthEPKc @215
    _ZNSt12_Destroy_auxILb1EE9__destroyIPdEEvT_S3_ @216
    _ZNSt12_Vector_baseIdSaIdEE11_M_allocateEy @217
    _ZNSt12_Vector_baseIdSaIdEE12_Vector_implC2Ev @218
    _ZNSt12_Vector_baseIdSaIdEE12_Vector_implD2Ev @219
    _ZNSt12_Vector_baseIdSaIdEE13_M_deallocateEPdy @220
    _ZNSt12_Vector_baseIdSaIdEE17_Vector_impl_dataC2Ev @221
    _ZNSt12_Vector_baseIdSaIdEE19_M_get_Tp_allocatorEv @222
    _ZNSt12_Vector_baseIdSaIdEEC2Ev @223
    _ZNSt12_Vector_baseIdSaIdEED2Ev @224
    _ZNSt13_Rb_tree_nodeISt4pairIKN5veins7ChannelEdEE9_M_valptrEv @225
    _ZNSt13_Rb_tree_nodeISt4pairIKiN5veins5CoordEEE9_M_valptrEv @226
    _ZNSt15_Rb_tree_header8_M_resetEv @227
    _ZNSt15_Rb_tree_headerC2Ev @228
    _ZNSt15__new_allocatorISt13_Rb_tree_nodeISt4pairIKN5veins7ChannelEdEEE10deallocateEPS6_y @229
    _ZNSt15__new_allocatorISt13_Rb_tree_nodeISt4pairIKN5veins7ChannelEdEEE7destroyIS5_EEvPT_ @230
    _ZNSt15__new_allocatorISt13_Rb_tree_nodeISt4pairIKN5veins7ChannelEdEEE8allocateEyPKv @231
    _ZNSt15__new_allocatorISt13_Rb_tree_nodeISt4pairIKN5veins7ChannelEdEEE9constructIS5_JRKS5_EEEvPT_DpOT0_ @232
    _ZNSt15__new_allocatorISt13_Rb_tree_nodeISt4pairIKN5veins7ChannelEdEEEC2ERKS7_ @233
    _ZNSt15__new_allocatorISt13_Rb_tree_nodeISt4pairIKN5veins7ChannelEdEEEC2Ev @234
    _ZNSt15__new_allocatorISt13_Rb_tree_nodeISt4pairIKN5veins7ChannelEdEEED2Ev @235
    _ZNSt15__new_allocatorISt13_Rb_tree_nodeISt4pairIKiN5veins5CoordEEEE10deallocateEPS6_y @236
    _ZNSt15__new_allocatorISt13_Rb_tree_nodeISt4pairIKiN5veins5CoordEEEE7destroyIS5_EEvPT_ @237
    _ZNSt15__new_allocatorISt13_Rb_tree_nodeISt4pairIKiN5veins5CoordEEEE8allocateEyPKv @238
    _ZNSt15__new_allocatorISt13_Rb_tree_nodeISt4pairIKiN5veins5CoordEEEE9constructIS5_JRKSt21piecewise_construct_tSt5tupleIJRS2_EESC_IJEEEEEvPT_DpOT0_ @239
    _ZNSt15__new_allocatorISt13_Rb_tree_nodeISt4pairIKiN5veins5CoordEEEEC2Ev @240
    _ZNSt15__new_allocatorISt13_Rb_tree_nodeISt4pairIKiN5veins5CoordEEEED2Ev @241
    _ZNSt15__new_allocatorISt4pairIKN5veins7ChannelEdEEC2ERKS5_ @242
    _ZNSt15__new_allocatorISt4pairIKN5veins7ChannelEdEEC2Ev @243
    _ZNSt15__new_allocatorISt4pairIKN5veins7ChannelEdEED2Ev @244
    _ZNSt15__new_allocatorIdE10deallocateEPdy @245
    _ZNSt15__new_allocatorIdE8allocateEyPKv @246
    _ZNSt15__new_allocatorIdE9constructIdJdEEEvPT_DpOT0_ @247
    _ZNSt15__new_allocatorIdEC2Ev @248
    _ZNSt15__new_allocatorIdED2Ev @249
    _ZNSt16allocator_traitsISaISt13_Rb_tree_nodeISt4pairIKN5veins7ChannelEdEEEE10deallocateERS7_PS6_y @250
    _ZNSt16allocator_traitsISaISt13_Rb_tree_nodeISt4pairIKN5veins7ChannelEdEEEE7destroyIS5_EEvRS7_PT_ @251
    _ZNSt16allocator_traitsISaISt13_Rb_tree_nodeISt4pairIKN5veins7ChannelEdEEEE8allocateERS7_y @252
    _ZNSt16allocator_traitsISaISt13_Rb_tree_nodeISt4pairIKN5veins7ChannelEdEEEE9constructIS5_JRKS5_EEEvRS7_PT_DpOT0_ @253
    _ZNSt16allocator_traitsISaISt13_Rb_tree_nodeISt4pairIKiN5veins5CoordEEEEE10deallocateERS7_PS6_y @254
    _ZNSt16allocator_traitsISaISt13_Rb_tree_nodeISt4pairIKiN5veins5CoordEEEEE7destroyIS5_EEvRS7_PT_ @255
    _ZNSt16allocator_traitsISaISt13_Rb_tree_nodeISt4pairIKiN5veins5CoordEEEEE8allocateERS7_y @256
    _ZNSt16allocator_traitsISaISt13_Rb_tree_nodeISt4pairIKiN5veins5CoordEEEEE9constructIS5_JRKSt21piecewise_construct_tSt5tupleIJRS2_EESD_IJEEEEEvRS7_PT_DpOT0_ @257
    _ZNSt16allocator_traitsISaIdEE10deallocateERS0_Pdy @258
    _ZNSt16allocator_traitsISaIdEE8allocateERS0_y @259
    _ZNSt16allocator_traitsISaIdEE8max_sizeERKS0_ @260
    _ZNSt16allocator_traitsISaIdEE9constructIdJdEEEvRS0_PT_DpOT0_ @261
    _ZNSt17_Rb_tree_iteratorISt4pairIKN5veins7ChannelEdEEC2EPSt18_Rb_tree_node_base @262
    _ZNSt17_Rb_tree_iteratorISt4pairIKN5veins7ChannelEdEEmmEv @263
    _ZNSt17_Rb_tree_iteratorISt4pairIKN5veins7ChannelEdEEppEv @264
    _ZNSt17_Rb_tree_iteratorISt4pairIKiN5veins5CoordEEEC2EPSt18_Rb_tree_node_base @265
    _ZNSt17_Rb_tree_iteratorISt4pairIKiN5veins5CoordEEEmmEv @266
    _ZNSt17_Rb_tree_iteratorISt4pairIKiN5veins5CoordEEEppEv @267
    _ZNSt20_Rb_tree_key_compareISt4lessIN5veins7ChannelEEEC2ERKS3_ @268
    _ZNSt20_Rb_tree_key_compareISt4lessIiEEC2Ev @269
    _ZNSt23_Rb_tree_const_iteratorISt4pairIKN5veins7ChannelEdEEC2ERKSt17_Rb_tree_iteratorIS4_E @270
    _ZNSt23_Rb_tree_const_iteratorISt4pairIKiN5veins5CoordEEEC2ERKSt17_Rb_tree_iteratorIS4_E @271
    _ZNSt3mapIN5veins7ChannelEdSt4lessIS1_ESaISt4pairIKS1_dEEEC2ESt16initializer_listIS6_ERKS3_RKS7_ @272
    _ZNSt3mapIN5veins7ChannelEdSt4lessIS1_ESaISt4pairIKS1_dEEED2Ev @273
    _ZNSt3mapIiN5veins5CoordESt4lessIiESaISt4pairIKiS1_EEE11lower_boundERS5_ @274
    _ZNSt3mapIiN5veins5CoordESt4lessIiESaISt4pairIKiS1_EEE3endEv @275
    _ZNSt3mapIiN5veins5CoordESt4lessIiESaISt4pairIKiS1_EEE5beginEv @276
    _ZNSt3mapIiN5veins5CoordESt4lessIiESaISt4pairIKiS1_EEE5clearEv @277
    _ZNSt3mapIiN5veins5CoordESt4lessIiESaISt4pairIKiS1_EEEC2Ev @278
    _ZNSt3mapIiN5veins5CoordESt4lessIiESaISt4pairIKiS1_EEED2Ev @279
    _ZNSt3mapIiN5veins5CoordESt4lessIiESaISt4pairIKiS1_EEEixERS5_ @280
    _ZNSt4pairIKiN5veins5CoordEEC2IJRS0_EJEEESt21piecewise_construct_tSt5tupleIJDpT_EES7_IJDpT0_EE @281
    _ZNSt4pairIKiN5veins5CoordEEC2IJRS0_EJLy0EEJEJEEERSt5tupleIJDpT_EERS6_IJDpT1_EESt12_Index_tupleIJXspT0_EEESF_IJXspT2_EEE @282
    _ZNSt4pairIKiN5veins5CoordEED2Ev @283
    _ZNSt4pairIPSt18_Rb_tree_node_baseS1_EC2IRPSt13_Rb_tree_nodeIS_IKN5veins7ChannelEdEERS1_Lb1EEEOT_OT0_ @284
    _ZNSt4pairIPSt18_Rb_tree_node_baseS1_EC2IRPSt13_Rb_tree_nodeIS_IKiN5veins5CoordEEERS1_Lb1EEEOT_OT0_ @285
    _ZNSt4pairIPSt18_Rb_tree_node_baseS1_EC2IRS1_S4_Lb1EEEOT_OT0_ @286
    _ZNSt4pairIPSt18_Rb_tree_node_baseS1_EC2IS1_S1_Lb1EEERKS1_S5_ @287
    _ZNSt5tupleIJRKiEEC2EOS2_ @288
    _ZNSt5tupleIJRKiEEC2ILb1ELb1EEES1_ @289
    _ZNSt6vectorIdSaIdEE11_S_max_sizeERKS0_ @290
    _ZNSt6vectorIdSaIdEE11_S_relocateEPdS2_S2_RS0_ @291
    _ZNSt6vectorIdSaIdEE12emplace_backIJdEEERdDpOT_ @292
    _ZNSt6vectorIdSaIdEE15_M_erase_at_endEPd @293
    _ZNSt6vectorIdSaIdEE17_M_realloc_insertIJdEEEvN9__gnu_cxx17__normal_iteratorIPdS1_EEDpOT_ @294
    _ZNSt6vectorIdSaIdEE3endEv @295
    _ZNSt6vectorIdSaIdEE4backEv @296
    _ZNSt6vectorIdSaIdEE5beginEv @297
    _ZNSt6vectorIdSaIdEE5clearEv @298
    _ZNSt6vectorIdSaIdEE9push_backEOd @299
    _ZNSt6vectorIdSaIdEEC2Ev @300
    _ZNSt6vectorIdSaIdEED2Ev @301
    _ZNSt6vectorIdSaIdEEixEy @302
    _ZNSt7__cxx1112basic_stringIcSt11char_traitsIcESaIcEE12_Alloc_hiderD2Ev @303
    _ZNSt7__cxx1112basic_stringIcSt11char_traitsIcESaIcEEC2IS3_EEPKcRKS3_ @304
    _ZNSt7__cxx1112basic_stringIcSt11char_traitsIcESaIcEEC2IS3_EEycRKS3_ @305
    _ZNSt7__cxx114stodERKNS_12basic_stringIcSt11char_traitsIcESaIcEEEPy @306
    _ZNSt7__cxx119to_stringEi @307
    _ZNSt8_Rb_treeIN5veins7ChannelESt4pairIKS1_dESt10_Select1stIS4_ESt4lessIS1_ESaIS4_EE10_M_insert_IRKS4_NSA_11_Alloc_nodeEEESt17_Rb_tree_iteratorIS4_EPSt18_Rb_tree_node_baseSI_OT_RT0_ @308
    _ZNSt8_Rb_treeIN5veins7ChannelESt4pairIKS1_dESt10_Select1stIS4_ESt4lessIS1_ESaIS4_EE11_Alloc_nodeC2ERSA_ @309
    _ZNSt8_Rb_treeIN5veins7ChannelESt4pairIKS1_dESt10_Select1stIS4_ESt4lessIS1_ESaIS4_EE11_M_get_nodeEv @310
    _ZNSt8_Rb_treeIN5veins7ChannelESt4pairIKS1_dESt10_Select1stIS4_ESt4lessIS1_ESaIS4_EE11_M_leftmostEv @311
    _ZNSt8_Rb_treeIN5veins7ChannelESt4pairIKS1_dESt10_Select1stIS4_ESt4lessIS1_ESaIS4_EE11_M_put_nodeEPSt13_Rb_tree_nodeIS4_E @312
    _ZNSt8_Rb_treeIN5veins7ChannelESt4pairIKS1_dESt10_Select1stIS4_ESt4lessIS1_ESaIS4_EE12_M_drop_nodeEPSt13_Rb_tree_nodeIS4_E @313
    _ZNSt8_Rb_treeIN5veins7ChannelESt4pairIKS1_dESt10_Select1stIS4_ESt4lessIS1_ESaIS4_EE12_M_rightmostEv @314
    _ZNSt8_Rb_treeIN5veins7ChannelESt4pairIKS1_dESt10_Select1stIS4_ESt4lessIS1_ESaIS4_EE13_Rb_tree_implIS8_Lb1EEC2ERKS8_OSaISt13_Rb_tree_nodeIS4_EE @315
    _ZNSt8_Rb_treeIN5veins7ChannelESt4pairIKS1_dESt10_Select1stIS4_ESt4lessIS1_ESaIS4_EE13_Rb_tree_implIS8_Lb1EED2Ev @316
    _ZNSt8_Rb_treeIN5veins7ChannelESt4pairIKS1_dESt10_Select1stIS4_ESt4lessIS1_ESaIS4_EE14_M_create_nodeIJRKS4_EEEPSt13_Rb_tree_nodeIS4_EDpOT_ @317
    _ZNSt8_Rb_treeIN5veins7ChannelESt4pairIKS1_dESt10_Select1stIS4_ESt4lessIS1_ESaIS4_EE15_M_destroy_nodeEPSt13_Rb_tree_nodeIS4_E @318
    _ZNSt8_Rb_treeIN5veins7ChannelESt4pairIKS1_dESt10_Select1stIS4_ESt4lessIS1_ESaIS4_EE17_M_construct_nodeIJRKS4_EEEvPSt13_Rb_tree_nodeIS4_EDpOT_ @319
    _ZNSt8_Rb_treeIN5veins7ChannelESt4pairIKS1_dESt10_Select1stIS4_ESt4lessIS1_ESaIS4_EE17_M_insert_unique_IRKS4_NSA_11_Alloc_nodeEEESt17_Rb_tree_iteratorIS4_ESt23_Rb_tree_const_iteratorIS4_EOT_RT0_ @320
    _ZNSt8_Rb_treeIN5veins7ChannelESt4pairIKS1_dESt10_Select1stIS4_ESt4lessIS1_ESaIS4_EE21_M_get_Node_allocatorEv @321
    _ZNSt8_Rb_treeIN5veins7ChannelESt4pairIKS1_dESt10_Select1stIS4_ESt4lessIS1_ESaIS4_EE22_M_insert_range_uniqueIPKS4_EENSt9enable_ifIXsr17__same_value_typeIT_EE5valueEvE4typeESF_SF_ @322
    _ZNSt8_Rb_treeIN5veins7ChannelESt4pairIKS1_dESt10_Select1stIS4_ESt4lessIS1_ESaIS4_EE24_M_get_insert_unique_posERS3_ @323
    _ZNSt8_Rb_treeIN5veins7ChannelESt4pairIKS1_dESt10_Select1stIS4_ESt4lessIS1_ESaIS4_EE29_M_get_insert_hint_unique_posESt23_Rb_tree_const_iteratorIS4_ERS3_ @324
    _ZNSt8_Rb_treeIN5veins7ChannelESt4pairIKS1_dESt10_Select1stIS4_ESt4lessIS1_ESaIS4_EE3endEv @325
    _ZNSt8_Rb_treeIN5veins7ChannelESt4pairIKS1_dESt10_Select1stIS4_ESt4lessIS1_ESaIS4_EE5beginEv @326
    _ZNSt8_Rb_treeIN5veins7ChannelESt4pairIKS1_dESt10_Select1stIS4_ESt4lessIS1_ESaIS4_EE6_M_endEv @327
    _ZNSt8_Rb_treeIN5veins7ChannelESt4pairIKS1_dESt10_Select1stIS4_ESt4lessIS1_ESaIS4_EE6_S_keyEPKSt13_Rb_tree_nodeIS4_E @328
    _ZNSt8_Rb_treeIN5veins7ChannelESt4pairIKS1_dESt10_Select1stIS4_ESt4lessIS1_ESaIS4_EE6_S_keyEPKSt18_Rb_tree_node_base @329
    _ZNSt8_Rb_treeIN5veins7ChannelESt4pairIKS1_dESt10_Select1stIS4_ESt4lessIS1_ESaIS4_EE7_S_leftEPSt18_Rb_tree_node_base @330
    _ZNSt8_Rb_treeIN5veins7ChannelESt4pairIKS1_dESt10_Select1stIS4_ESt4lessIS1_ESaIS4_EE8_M_beginEv @331
    _ZNSt8_Rb_treeIN5veins7ChannelESt4pairIKS1_dESt10_Select1stIS4_ESt4lessIS1_ESaIS4_EE8_M_eraseEPSt13_Rb_tree_nodeIS4_E @332
    _ZNSt8_Rb_treeIN5veins7ChannelESt4pairIKS1_dESt10_Select1stIS4_ESt4lessIS1_ESaIS4_EE8_S_rightEPSt18_Rb_tree_node_base @333
    _ZNSt8_Rb_treeIN5veins7ChannelESt4pairIKS1_dESt10_Select1stIS4_ESt4lessIS1_ESaIS4_EEC2ERKS8_RKS9_ @334
    _ZNSt8_Rb_treeIN5veins7ChannelESt4pairIKS1_dESt10_Select1stIS4_ESt4lessIS1_ESaIS4_EED2Ev @335
    _ZNSt8_Rb_treeIiSt4pairIKiN5veins5CoordEESt10_Select1stIS4_ESt4lessIiESaIS4_EE10_Auto_node9_M_insertES0_IPSt18_Rb_tree_node_baseSD_E @336
    _ZNSt8_Rb_treeIiSt4pairIKiN5veins5CoordEESt10_Select1stIS4_ESt4lessIiESaIS4_EE10_Auto_nodeC2IJRKSt21piecewise_construct_tSt5tupleIJRS1_EESG_IJEEEEERSA_DpOT_ @337
    _ZNSt8_Rb_treeIiSt4pairIKiN5veins5CoordEESt10_Select1stIS4_ESt4lessIiESaIS4_EE10_Auto_nodeD2Ev @338
    _ZNSt8_Rb_treeIiSt4pairIKiN5veins5CoordEESt10_Select1stIS4_ESt4lessIiESaIS4_EE11_M_get_nodeEv @339
    _ZNSt8_Rb_treeIiSt4pairIKiN5veins5CoordEESt10_Select1stIS4_ESt4lessIiESaIS4_EE11_M_leftmostEv @340
    _ZNSt8_Rb_treeIiSt4pairIKiN5veins5CoordEESt10_Select1stIS4_ESt4lessIiESaIS4_EE11_M_put_nodeEPSt13_Rb_tree_nodeIS4_E @341
    _ZNSt8_Rb_treeIiSt4pairIKiN5veins5CoordEESt10_Select1stIS4_ESt4lessIiESaIS4_EE11lower_boundERS1_ @342
    _ZNSt8_Rb_treeIiSt4pairIKiN5veins5CoordEESt10_Select1stIS4_ESt4lessIiESaIS4_EE12_M_drop_nodeEPSt13_Rb_tree_nodeIS4_E @343
    _ZNSt8_Rb_treeIiSt4pairIKiN5veins5CoordEESt10_Select1stIS4_ESt4lessIiESaIS4_EE12_M_rightmostEv @344
    _ZNSt8_Rb_treeIiSt4pairIKiN5veins5CoordEESt10_Select1stIS4_ESt4lessIiESaIS4_EE13_Rb_tree_implIS8_Lb1EEC2Ev @345
    _ZNSt8_Rb_treeIiSt4pairIKiN5veins5CoordEESt10_Select1stIS4_ESt4lessIiESaIS4_EE13_Rb_tree_implIS8_Lb1EED2Ev @346
    _ZNSt8_Rb_treeIiSt4pairIKiN5veins5CoordEESt10_Select1stIS4_ESt4lessIiESaIS4_EE14_M_create_nodeIJRKSt21piecewise_construct_tSt5tupleIJRS1_EESF_IJEEEEEPSt13_Rb_tree_nodeIS4_EDpOT_ @347
    _ZNSt8_Rb_treeIiSt4pairIKiN5veins5CoordEESt10_Select1stIS4_ESt4lessIiESaIS4_EE14_M_insert_nodeEPSt18_Rb_tree_node_baseSC_PSt13_Rb_tree_nodeIS4_E @348
    _ZNSt8_Rb_treeIiSt4pairIKiN5veins5CoordEESt10_Select1stIS4_ESt4lessIiESaIS4_EE14_M_lower_boundEPSt13_Rb_tree_nodeIS4_EPSt18_Rb_tree_node_baseRS1_ @349
    _ZNSt8_Rb_treeIiSt4pairIKiN5veins5CoordEESt10_Select1stIS4_ESt4lessIiESaIS4_EE15_M_destroy_nodeEPSt13_Rb_tree_nodeIS4_E @350
    _ZNSt8_Rb_treeIiSt4pairIKiN5veins5CoordEESt10_Select1stIS4_ESt4lessIiESaIS4_EE17_M_construct_nodeIJRKSt21piecewise_construct_tSt5tupleIJRS1_EESF_IJEEEEEvPSt13_Rb_tree_nodeIS4_EDpOT_ @351
    _ZNSt8_Rb_treeIiSt4pairIKiN5veins5CoordEESt10_Select1stIS4_ESt4lessIiESaIS4_EE21_M_get_Node_allocatorEv @352
    _ZNSt8_Rb_treeIiSt4pairIKiN5veins5CoordEESt10_Select1stIS4_ESt4lessIiESaIS4_EE22_M_emplace_hint_uniqueIJRKSt21piecewise_construct_tSt5tupleIJRS1_EESF_IJEEEEESt17_Rb_tree_iteratorIS4_ESt23_Rb_tree_const_iteratorIS4_EDpOT_ @353
    _ZNSt8_Rb_treeIiSt4pairIKiN5veins5CoordEESt10_Select1stIS4_ESt4lessIiESaIS4_EE24_M_get_insert_unique_posERS1_ @354
    _ZNSt8_Rb_treeIiSt4pairIKiN5veins5CoordEESt10_Select1stIS4_ESt4lessIiESaIS4_EE29_M_get_insert_hint_unique_posESt23_Rb_tree_const_iteratorIS4_ERS1_ @355
    _ZNSt8_Rb_treeIiSt4pairIKiN5veins5CoordEESt10_Select1stIS4_ESt4lessIiESaIS4_EE3endEv @356
    _ZNSt8_Rb_treeIiSt4pairIKiN5veins5CoordEESt10_Select1stIS4_ESt4lessIiESaIS4_EE5beginEv @357
    _ZNSt8_Rb_treeIiSt4pairIKiN5veins5CoordEESt10_Select1stIS4_ESt4lessIiESaIS4_EE5clearEv @358
    _ZNSt8_Rb_treeIiSt4pairIKiN5veins5CoordEESt10_Select1stIS4_ESt4lessIiESaIS4_EE6_M_endEv @359
    _ZNSt8_Rb_treeIiSt4pairIKiN5veins5CoordEESt10_Select1stIS4_ESt4lessIiESaIS4_EE6_S_keyEPKSt13_Rb_tree_nodeIS4_E @360
    _ZNSt8_Rb_treeIiSt4pairIKiN5veins5CoordEESt10_Select1stIS4_ESt4lessIiESaIS4_EE6_S_keyEPKSt18_Rb_tree_node_base @361
    _ZNSt8_Rb_treeIiSt4pairIKiN5veins5CoordEESt10_Select1stIS4_ESt4lessIiESaIS4_EE7_S_leftEPSt18_Rb_tree_node_base @362
    _ZNSt8_Rb_treeIiSt4pairIKiN5veins5CoordEESt10_Select1stIS4_ESt4lessIiESaIS4_EE8_M_beginEv @363
    _ZNSt8_Rb_treeIiSt4pairIKiN5veins5CoordEESt10_Select1stIS4_ESt4lessIiESaIS4_EE8_M_eraseEPSt13_Rb_tree_nodeIS4_E @364
    _ZNSt8_Rb_treeIiSt4pairIKiN5veins5CoordEESt10_Select1stIS4_ESt4lessIiESaIS4_EE8_S_rightEPSt18_Rb_tree_node_base @365
    _ZNSt8_Rb_treeIiSt4pairIKiN5veins5CoordEESt10_Select1stIS4_ESt4lessIiESaIS4_EEC2Ev @366
    _ZNSt8_Rb_treeIiSt4pairIKiN5veins5CoordEESt10_Select1stIS4_ESt4lessIiESaIS4_EED2Ev @367
    _ZNSt8__detail14__to_chars_lenIjEEjT_i @368
    _ZNSt8__detail18__to_chars_10_implIjEEvPcjT_ @369
    _ZSt10__distanceIPKcENSt15iterator_traitsIT_E15difference_typeES3_S3_St26random_access_iterator_tag @370
    _ZSt12__get_helperILy0ERKiJEERT0_RSt11_Tuple_implIXT_EJS2_DpT1_EE @371
    _ZSt12__niter_baseIPdET_S1_ @372
    _ZSt12__relocate_aIPdS0_SaIdEET0_T_S3_S2_RT1_ @373
    _ZSt14__relocate_a_1IddENSt9enable_ifIXsr3std24__is_bitwise_relocatableIT_EE5valueEPS1_E4typeES2_S2_S2_RSaIT0_E @374
    _ZSt19__iterator_categoryIPKcENSt15iterator_traitsIT_E17iterator_categoryERKS3_ @375
    _ZSt19piecewise_construct @376 DATA
    _ZSt3getILy0EJRKiEERNSt13tuple_elementIXT_ESt5tupleIJDpT0_EEE4typeERS6_ @377
    _ZSt3getILy0EKiN5veins5CoordEERKNSt13tuple_elementIXT_ESt4pairIT0_T1_EE4typeERKS7_ @378
    _ZSt3getILy1EKiN5veins5CoordEERKNSt13tuple_elementIXT_ESt4pairIT0_T1_EE4typeERKS7_ @379
    _ZSt3maxIyERKT_S2_S2_ @380
    _ZSt3minIyERKT_S2_S2_ @381
    _ZSt3powIdiEN9__gnu_cxx9__promoteIDTplcvNS1_IT_Xsr3std12__is_integerIS2_EE7__valueEE6__typeELi0EcvNS1_IT0_Xsr3std12__is_integerIS5_EE7__valueEE6__typeELi0EEXsr3std12__is_integerIS8_EE7__valueEE6__typeES2_S5_ @382
    _ZSt4moveIRNSt7__cxx1112basic_stringIcSt11char_traitsIcESaIcEEEEONSt16remove_referenceIT_E4typeEOS8_ @383
    _ZSt4moveIRSaISt13_Rb_tree_nodeISt4pairIKN5veins7ChannelEdEEEEONSt16remove_referenceIT_E4typeEOSA_ @384
    _ZSt4moveIRdEONSt16remove_referenceIT_E4typeEOS2_ @385
    _ZSt7forwardIRKSt21piecewise_construct_tEOT_RNSt16remove_referenceIS3_E4typeE @386
    _ZSt7forwardIRKSt4pairIKN5veins7ChannelEdEEOT_RNSt16remove_referenceIS7_E4typeE @387
    _ZSt7forwardIRKiEOT_RNSt16remove_referenceIS2_E4typeE @388
    _ZSt7forwardIRPSt13_Rb_tree_nodeISt4pairIKN5veins7ChannelEdEEEOT_RNSt16remove_referenceIS9_E4typeE @389
    _ZSt7forwardIRPSt13_Rb_tree_nodeISt4pairIKiN5veins5CoordEEEEOT_RNSt16remove_referenceIS9_E4typeE @390
    _ZSt7forwardIRPSt18_Rb_tree_node_baseEOT_RNSt16remove_referenceIS3_E4typeE @391
    _ZSt7forwardISt5tupleIJEEEOT_RNSt16remove_referenceIS2_E4typeE @392
    _ZSt7forwardISt5tupleIJRKiEEEOT_RNSt16remove_referenceIS4_E4typeE @393
    _ZSt7forwardIdEOT_RNSt16remove_referenceIS0_E4typeE @394
    _ZSt8_DestroyIPdEvT_S1_ @395
    _ZSt8_DestroyIPddEvT_S1_RSaIT0_E @396
    _ZSt8distanceIPKcENSt15iterator_traitsIT_E15difference_typeES3_S3_ @397
    _ZSteqRKSt17_Rb_tree_iteratorISt4pairIKN5veins7ChannelEdEES7_ @398
    _ZSteqRKSt17_Rb_tree_iteratorISt4pairIKiN5veins5CoordEEES7_ @399
    _ZStneRKSt17_Rb_tree_iteratorISt4pairIKiN5veins5CoordEEES7_ @400
    _ZStorSt13_Ios_OpenmodeS_ @401
    _ZStplIcSt11char_traitsIcESaIcEENSt7__cxx1112basic_stringIT_T0_T1_EEOS8_PKS5_ @402
    _ZStplIcSt11char_traitsIcESaIcEENSt7__cxx1112basic_stringIT_T0_T1_EEPKS5_OS8_ @403
    _ZTIN13bangalore_v2v14MyBangaloreAppE @404 DATA
    _ZTSN13bangalore_v2v14MyBangaloreAppE @405 DATA
    _ZTSN5veins10BaseModuleE @406 DATA
    _ZTSN5veins12BaseMobilityE @407 DATA
    _ZTSN5veins13BaseApplLayerE @408 DATA
    _ZTSN5veins13BatteryAccessE @409 DATA
    _ZTSN5veins13TraCIMobilityE @410 DATA
    _ZTSN5veins17DemoBaseApplLayerE @411 DATA
    _ZTSN5veins5CoordE @412 DATA
    _ZTSN5veins9BaseLayerE @413 DATA
    _ZTSN7omnetpp10cComponentE @414 DATA
    _ZTSN7omnetpp10cExceptionE @415 DATA
    _ZTSN7omnetpp10cIListenerE @416 DATA
    _ZTSN7omnetpp10cSoftOwnerE @417 DATA
    _ZTSN7omnetpp11noncopyableE @418 DATA
    _ZTSN7omnetpp12cNamedObjectE @419 DATA
    _ZTSN7omnetpp12cOwnedObjectE @420 DATA
    _ZTSN7omnetpp13cRuntimeErrorE @421 DATA
    _ZTSN7omnetpp13cSimpleModuleE @422 DATA
    _ZTSN7omnetpp23cNoncopyableOwnedObjectE @423 DATA
    _ZTSN7omnetpp7cModuleE @424 DATA
    _ZTSN7omnetpp7cObjectE @425 DATA
    _ZTSN7omnetpp9cListenerE @426 DATA
    _ZTVN13bangalore_v2v14MyBangaloreAppE @427 DATA
    _ZThn216_N13bangalore_v2v14MyBangaloreAppD0Ev @428
    _ZThn216_N13bangalore_v2v14MyBangaloreAppD1Ev @429
    _ZZN9__gnu_cxx6__stoaIddcJEEET0_PFT_PKT1_PPS3_DpT2_EPKcS5_PyS9_EN10_Range_chk6_S_chkEdSt17integral_constantIbLb0EE @430
    _ZZN9__gnu_cxx6__stoaIddcJEEET0_PFT_PKT1_PPS3_DpT2_EPKcS5_PyS9_EN11_Save_errnoC2Ev @431
    _ZZN9__gnu_cxx6__stoaIddcJEEET0_PFT_PKT1_PPS3_DpT2_EPKcS5_PyS9_EN11_Save_errnoD2Ev @432
    _ZZNSt7__cxx1112basic_stringIcSt11char_traitsIcESaIcEE12_M_constructIPKcEEvT_S8_St20forward_iterator_tagEN6_GuardC2EPS4_ @433
    _ZZNSt7__cxx1112basic_stringIcSt11char_traitsIcESaIcEE12_M_constructIPKcEEvT_S8_St20forward_iterator_tagEN6_GuardD2Ev @434
    __clang_call_terminate @435
